target datalayout = "e-m:e-p270:32:32-p271:32:32-p272:64:64-i64:64-i128:128-f80:128-n8:16:32:64-S128"
target triple = "x86_64-pc-linux-gnu"

; Function Attrs: nounwind uwtable
define internal i32 @H5P__dxfr_xform_cmp(ptr noundef %0, ptr noundef %1, i64 noundef %2) #0 {
  %4 = alloca ptr, align 8
  %5 = alloca ptr, align 8
  %6 = alloca i64, align 8
  %7 = alloca ptr, align 8
  %8 = alloca ptr, align 8
  %9 = alloca ptr, align 8
  %10 = alloca ptr, align 8
  %11 = alloca i32, align 4
  store ptr %0, ptr %4, align 8
  store ptr %1, ptr %5, align 8
  store i64 %2, ptr %6, align 8
  %12 = load ptr, ptr %4, align 8
  store ptr %12, ptr %7, align 8
  %13 = load ptr, ptr %5, align 8
  store ptr %13, ptr %8, align 8
  store i32 0, ptr %11, align 4
  %14 = load ptr, ptr %7, align 8
  %15 = load ptr, ptr %14, align 8
  %16 = icmp eq ptr %15, null
  br i1 %16, label %17, label %24

17:                                               ; preds = %3
  %18 = load ptr, ptr %8, align 8
  %19 = load ptr, ptr %18, align 8
  %20 = icmp ne ptr %19, null
  br i1 %20, label %21, label %24

21:                                               ; preds = %17
  br label %22

22:                                               ; preds = %21
  store i32 -1, ptr %11, align 4
  br label %72

23:                                               ; No predecessors!
  br label %24

24:                                               ; preds = %23, %17, %3
  %25 = load ptr, ptr %7, align 8
  %26 = load ptr, ptr %25, align 8
  %27 = icmp ne ptr %26, null
  br i1 %27, label %28, label %35

28:                                               ; preds = %24
  %29 = load ptr, ptr %8, align 8
  %30 = load ptr, ptr %29, align 8
  %31 = icmp eq ptr %30, null
  br i1 %31, label %32, label %35

32:                                               ; preds = %28
  br label %33

33:                                               ; preds = %32
  store i32 1, ptr %11, align 4
  br label %72

34:                                               ; No predecessors!
  br label %35

35:                                               ; preds = %34, %28, %24
  %36 = load ptr, ptr %7, align 8
  %37 = load ptr, ptr %36, align 8
  %38 = icmp ne ptr %37, null
  br i1 %38, label %39, label %71

39:                                               ; preds = %35
  %40 = load ptr, ptr %7, align 8
  %41 = load ptr, ptr %40, align 8
  %42 = call ptr @H5Z_xform_extract_xform_str(ptr noundef %41)
  store ptr %42, ptr %9, align 8
  %43 = load ptr, ptr %8, align 8
  %44 = load ptr, ptr %43, align 8
  %45 = call ptr @H5Z_xform_extract_xform_str(ptr noundef %44)
  store ptr %45, ptr %10, align 8
  %46 = load ptr, ptr %9, align 8
  %47 = icmp eq ptr %46, null
  br i1 %47, label %48, label %54

48:                                               ; preds = %39
  %49 = load ptr, ptr %10, align 8
  %50 = icmp ne ptr %49, null
  br i1 %50, label %51, label %54

51:                                               ; preds = %48
  br label %52

52:                                               ; preds = %51
  store i32 -1, ptr %11, align 4
  br label %72

53:                                               ; No predecessors!
  br label %54

54:                                               ; preds = %53, %48, %39
  %55 = load ptr, ptr %9, align 8
  %56 = icmp ne ptr %55, null
  br i1 %56, label %57, label %63

57:                                               ; preds = %54
  %58 = load ptr, ptr %10, align 8
  %59 = icmp eq ptr %58, null
  br i1 %59, label %60, label %63

60:                                               ; preds = %57
  br label %61

61:                                               ; preds = %60
  store i32 1, ptr %11, align 4
  br label %72

62:                                               ; No predecessors!
  br label %63

63:                                               ; preds = %62, %57, %54
  %64 = load ptr, ptr %9, align 8
  %65 = icmp ne ptr %64, null
  br i1 %65, label %66, label %70

66:                                               ; preds = %63
  %67 = load ptr, ptr %9, align 8
  %68 = load ptr, ptr %10, align 8
  %69 = call i32 @strcmp(ptr noundef %67, ptr noundef %68) #5
  store i32 %69, ptr %11, align 4
  br label %70

70:                                               ; preds = %66, %63
  br label %71

71:                                               ; preds = %70, %35
  br label %72

72:                                               ; preds = %71, %61, %52, %33, %22
  %73 = load i32, ptr %11, align 4
  ret i32 %73
}