; Function Attrs: nounwind uwtable
define internal i32 @H5P__dxfr_xform_cmp(ptr nocapture noundef readonly %0, ptr nocapture noundef readonly %1, i64 %2) #0 {
  %4 = load ptr, ptr %0, align 8
  %5 = icmp eq ptr %4, null
  %6 = load ptr, ptr %1, align 8
  br i1 %5, label %7, label %8

7:                                                ; preds = %3
  %.not = icmp ne ptr %6, null
  %spec.select = sext i1 %.not to i32
  br label %.thread24

8:                                                ; preds = %3
  %9 = icmp eq ptr %6, null
  br i1 %9, label %.thread24, label %10

10:                                               ; preds = %8
  %11 = tail call ptr @H5Z_xform_extract_xform_str(ptr noundef nonnull %4) #8
  %12 = load ptr, ptr %1, align 8
  %13 = tail call ptr @H5Z_xform_extract_xform_str(ptr noundef %12) #8
  %14 = icmp eq ptr %11, null
  %15 = icmp ne ptr %13, null
  %or.cond = select i1 %14, i1 %15, i1 false
  br i1 %or.cond, label %.thread24, label %16

16:                                               ; preds = %10
  %17 = icmp ne ptr %11, null
  %18 = icmp eq ptr %13, null
  %or.cond3 = select i1 %17, i1 %18, i1 false
  %.not23 = xor i1 %17, true
  %brmerge = select i1 %.not23, i1 true, i1 %18
  %.mux = zext i1 %or.cond3 to i32
  br i1 %brmerge, label %.thread24, label %19

19:                                               ; preds = %16
  %20 = tail call i32 @strcmp(ptr noundef nonnull dereferenceable(1) %11, ptr noundef nonnull dereferenceable(1) %13) #9
  br label %.thread24

.thread24:                                        ; preds = %7, %16, %10, %8, %19
  %.0 = phi i32 [ %20, %19 ], [ 1, %8 ], [ -1, %10 ], [ %.mux, %16 ], [ %spec.select, %7 ]
  ret i32 %.0
}